target datalayout = "e-m:e-p270:32:32-p271:32:32-p272:64:64-i64:64-i128:128-f80:128-n8:16:32:64-S128"
target triple = "x86_64-pc-linux-gnu"

%struct.rb_data_type_struct = type { ptr, %struct.anon, ptr, ptr, i64 }
%struct.anon = type { ptr, ptr, ptr, ptr, [1 x ptr] }

@ossl_x509_type = internal constant %struct.rb_data_type_struct { ptr @.str.34, %struct.anon { ptr null, ptr @ossl_x509_free, ptr null, ptr null, [1 x ptr] zeroinitializer }, ptr null, ptr null, i64 33 }, align 8
@eX509CertError = internal global i64 0, align 8
@rb_eRuntimeError = external global i64, align 8
@.str = private unnamed_addr constant [25 x i8] c"CERT wasn't initialized!\00", align 1

; Function Attrs: nounwind sspstrong uwtable
define internal i64 @ossl_x509_verify(i64 noundef %0, i64 noundef %1) #0 {
  %3 = alloca i64, align 8
  %4 = alloca i64, align 8
  %5 = alloca i64, align 8
  %6 = alloca ptr, align 8
  %7 = alloca ptr, align 8
  %8 = alloca i32, align 4
  store i64 %0, ptr %4, align 8, !tbaa !11
  store i64 %1, ptr %5, align 8, !tbaa !11
  call void @llvm.lifetime.start.p0(i64 8, ptr %6) #15
  call void @llvm.lifetime.start.p0(i64 8, ptr %7) #15
  br label %9

9:                                                ; preds = %2
  %10 = load i64, ptr %4, align 8, !tbaa !11
  %11 = call ptr @rb_check_typeddata(i64 noundef %10, ptr noundef @ossl_x509_type)
  store ptr %11, ptr %6, align 8, !tbaa !6
  %12 = load ptr, ptr %6, align 8, !tbaa !6
  %13 = icmp ne ptr %12, null
  br i1 %13, label %16, label %14

14:                                               ; preds = %9
  %15 = load i64, ptr @rb_eRuntimeError, align 8, !tbaa !11
  call void (i64, ptr, ...) @ossl_raise(i64 noundef %15, ptr noundef @.str) #16
  unreachable

16:                                               ; preds = %9
  br label %17

17:                                               ; preds = %16
  br label %18

18:                                               ; preds = %17
  %19 = load i64, ptr %5, align 8, !tbaa !11
  %20 = call ptr @GetPKeyPtr(i64 noundef %19)
  store ptr %20, ptr %7, align 8, !tbaa !33
  %21 = load ptr, ptr %7, align 8, !tbaa !33
  call void @ossl_pkey_check_public_key(ptr noundef %21)
  %22 = load ptr, ptr %6, align 8, !tbaa !6
  %23 = load ptr, ptr %7, align 8, !tbaa !33
  %24 = call i32 @X509_verify(ptr noundef %22, ptr noundef %23)
  switch i32 %24, label %27 [
    i32 1, label %25
    i32 0, label %26
  ]

25:                                               ; preds = %18
  store i64 20, ptr %3, align 8
  store i32 1, ptr %8, align 4
  br label %29

26:                                               ; preds = %18
  call void @ossl_clear_error()
  store i64 0, ptr %3, align 8
  store i32 1, ptr %8, align 4
  br label %29

27:                                               ; preds = %18
  %28 = load i64, ptr @eX509CertError, align 8, !tbaa !11
  call void (i64, ptr, ...) @ossl_raise(i64 noundef %28, ptr noundef null) #16
  unreachable

29:                                               ; preds = %26, %25
  call void @llvm.lifetime.end.p0(i64 8, ptr %7) #15
  call void @llvm.lifetime.end.p0(i64 8, ptr %6) #15
  %30 = load i64, ptr %3, align 8
  ret i64 %30
}