; Function Attrs: nounwind sspstrong uwtable
define internal range(i64 0, 21) i64 @ossl_x509_verify(i64 noundef %0, i64 noundef %1) #0 {
  %3 = tail call ptr @rb_check_typeddata(i64 noundef %0, ptr noundef nonnull @ossl_x509_type) #5
  %.not = icmp eq ptr %3, null
  br i1 %.not, label %4, label %6

4:                                                ; preds = %2
  %5 = load i64, ptr @rb_eRuntimeError, align 8, !tbaa !6
  tail call void (i64, ptr, ...) @ossl_raise(i64 noundef %5, ptr noundef nonnull @.str) #6
  unreachable

6:                                                ; preds = %2
  %7 = tail call ptr @GetPKeyPtr(i64 noundef %1) #5
  tail call void @ossl_pkey_check_public_key(ptr noundef %7) #5
  %8 = tail call i32 @X509_verify(ptr noundef nonnull %3, ptr noundef %7) #5
  switch i32 %8, label %10 [
    i32 1, label %12
    i32 0, label %9
  ]

9:                                                ; preds = %6
  tail call void @ossl_clear_error() #5
  br label %12

10:                                               ; preds = %6
  %11 = load i64, ptr @eX509CertError, align 8, !tbaa !6
  tail call void (i64, ptr, ...) @ossl_raise(i64 noundef %11, ptr noundef null) #6
  unreachable

12:                                               ; preds = %6, %9
  %.0 = phi i64 [ 0, %9 ], [ 20, %6 ]
  ret i64 %.0
}